MODULE windows x86 C1C0FA629EAA4B4D9DD2ADE270A231CC1 BreakpadTestApp.pdb
INFO CODE_ID 54819C56A000 BreakpadTestApp.exe
FUNC 1000 1a c google_breakpad::WindowsStringUtils::safe_wcscpy(wchar_t *,unsigned int,wchar_t const *)
FUNC 1020 28 c google_breakpad::CustomInfoEntry::CustomInfoEntry(wchar_t const *,wchar_t const *)
FUNC 1050 2f 8 google_breakpad::CustomInfoEntry::set_name(wchar_t const *)
FUNC 1080 38 8 google_breakpad::CustomInfoEntry::set_value(wchar_t const *)
FUNC 10c0 8 18 callbackFunc(wchar_t const *,wchar_t const *,void *,_EXCEPTION_POINTERS *,MDRawAssertionInfo *,bool)
FUNC 10d0 18 0 crashedFunc()
FUNC 10f0 a 0 deeperFunc()
FUNC 1100 a 0 deepFunc()
FUNC 1110 a 0 anotherFunc()
FUNC 1120 a 0 someFunc()
FUNC 1130 a 0 func()
FUNC 1140 e9 8 wmain
FUNC 1230 74 0 google_breakpad::ProtocolMessage::ProtocolMessage()
FUNC 12b0 71 2c google_breakpad::ProtocolMessage::ProtocolMessage(google_breakpad::MessageTag,unsigned long,_MINIDUMP_TYPE,unsigned long *,_EXCEPTION_POINTERS * *,MDRawAssertionInfo *,google_breakpad::CustomClientInfo const &,void *,void *,void *)
FUNC 1330 9c 10 google_breakpad::CrashGenerationClient::CrashGenerationClient(wchar_t const *,_MINIDUMP_TYPE,google_breakpad::CustomClientInfo const *)
FUNC 13d0 56 0 google_breakpad::CrashGenerationClient::~CrashGenerationClient()
FUNC 1430 3e 0 google_breakpad::CrashGenerationClient::Register()
FUNC 1470 67 0 google_breakpad::CrashGenerationClient::ConnectToServer()
FUNC 14e0 110 8 google_breakpad::CrashGenerationClient::RegisterClient(void *)
FUNC 15f0 77 10 google_breakpad::CrashGenerationClient::ConnectToPipe(wchar_t const *,unsigned long,unsigned long)
FUNC 1670 4e 8 google_breakpad::CrashGenerationClient::ValidateResponse(google_breakpad::ProtocolMessage const &)
FUNC 16c0 19 0 google_breakpad::CrashGenerationClient::IsRegistered()
FUNC 16e0 6f c google_breakpad::CrashGenerationClient::RequestDump(_EXCEPTION_POINTERS *,MDRawAssertionInfo *)
FUNC 1750 68 0 google_breakpad::CrashGenerationClient::SignalCrashEventAndWait()
FUNC 17c0 26 8 std::bad_alloc::bad_alloc(char const *)
FUNC 17f0 1d 0 std::bad_alloc::~bad_alloc()
FUNC 1810 2c 0 std::bad_alloc::`vector deleting destructor'(unsigned int)
FUNC 1840 8 8 operator new(unsigned int,void *)
FUNC 1850 18 8 google_breakpad::scoped_ptr<google_breakpad::CrashGenerationClient>::scoped_ptr<google_breakpad::CrashGenerationClient>(google_breakpad::CrashGenerationClient *)
FUNC 1870 e 0 std::allocator<google_breakpad::ExceptionHandler *>::allocator<google_breakpad::ExceptionHandler *>()
FUNC 1880 b 0 std::_Container_base_aux::~_Container_base_aux()
FUNC 1890 17 0 std::_Iterator_base_aux::_Iterator_base_aux()
FUNC 18b0 17 8 std::_Iterator_base_aux::_Set_container(std::_Container_base_aux const * const)
FUNC 18d0 2e 0 std::_Iterator_base_aux::_Getmycont()
FUNC 1900 1c 8 std::_Iterator_base_aux::_Same_container(std::_Iterator_base_aux const &)
FUNC 1920 18 0 std::_Iterator_base_aux::_Has_container()
FUNC 1940 6a 8 std::logic_error::logic_error(std::basic_string<char,std::char_traits<char>,std::allocator<char> > const &)
FUNC 19b0 29 0 std::logic_error::~logic_error()
FUNC 19e0 17 0 std::logic_error::what()
FUNC 1a00 2c 0 std::logic_error::`scalar deleting destructor'(unsigned int)
FUNC 1a30 25 8 std::length_error::length_error(std::basic_string<char,std::char_traits<char>,std::allocator<char> > const &)
FUNC 1a60 1c 0 std::length_error::~length_error()
FUNC 1a80 2c 0 std::length_error::`vector deleting destructor'(unsigned int)
FUNC 1ab0 71 8 std::logic_error::logic_error(std::logic_error const &)
FUNC 1b30 25 8 std::length_error::length_error(std::length_error const &)
FUNC 1b60 1b 8 std::allocator<std::_Aux_cont>::allocate(unsigned int)
FUNC 1b80 4d 8 std::_Allocate<std::_Aux_cont>(unsigned int,std::_Aux_cont *)
FUNC 1bd0 26 8 std::bad_alloc::bad_alloc(std::bad_alloc const &)
FUNC 1c00 25 8 std::out_of_range::out_of_range(std::basic_string<char,std::char_traits<char>,std::allocator<char> > const &)
FUNC 1c30 1c 0 std::out_of_range::~out_of_range()
FUNC 1c50 2c 0 std::out_of_range::`vector deleting destructor'(unsigned int)
FUNC 1c80 25 8 std::out_of_range::out_of_range(std::out_of_range const &)
FUNC 1cb0 37 8 google_breakpad::ExceptionHandler::set_dump_path(std::basic_string<wchar_t,std::char_traits<wchar_t>,std::allocator<wchar_t> > const &)
FUNC 1cf0 14 0 google_breakpad::ExceptionHandler::get_handle_debug_exceptions()
FUNC 1d10 1c 0 google_breakpad::ExceptionHandler::IsOutOfProcess()
FUNC 1d30 ad 24 google_breakpad::ExceptionHandler::ExceptionHandler(std::basic_string<wchar_t,std::char_traits<wchar_t>,std::allocator<wchar_t> > const &,bool (*)(void *,_EXCEPTION_POINTERS *,MDRawAssertionInfo *),bool (*)(wchar_t const *,wchar_t const *,void *,_EXCEPTION_POINTERS *,MDRawAssertionInfo *,bool),void *,int,_MINIDUMP_TYPE,wchar_t const *,google_breakpad::CustomClientInfo const *)
FUNC 1de0 3e3 24 google_breakpad::ExceptionHandler::Initialize(std::basic_string<wchar_t,std::char_traits<wchar_t>,std::allocator<wchar_t> > const &,bool (*)(void *,_EXCEPTION_POINTERS *,MDRawAssertionInfo *),bool (*)(wchar_t const *,wchar_t const *,void *,_EXCEPTION_POINTERS *,MDRawAssertionInfo *,bool),void *,int,_MINIDUMP_TYPE,wchar_t const *,google_breakpad::CustomClientInfo const *)
FUNC 21d0 88 4 google_breakpad::ExceptionHandler::ExceptionHandlerThreadMain(void *)
FUNC 2260 86 0 google_breakpad::AutoExceptionHandler::AutoExceptionHandler()
FUNC 22f0 4a 0 google_breakpad::AutoExceptionHandler::~AutoExceptionHandler()
FUNC 2340 127 4 google_breakpad::ExceptionHandler::HandleException(_EXCEPTION_POINTERS *)
FUNC 2470 261 14 google_breakpad::ExceptionHandler::HandleInvalidParameter(wchar_t const *,wchar_t const *,wchar_t const *,unsigned int,unsigned int)
FUNC 26e0 1f2 0 google_breakpad::ExceptionHandler::HandlePureVirtualCall()
FUNC 28e0 d3 c google_breakpad::ExceptionHandler::WriteMinidumpOnHandlerThread(_EXCEPTION_POINTERS *,MDRawAssertionInfo *)
FUNC 29c0 30d 10 google_breakpad::ExceptionHandler::WriteMinidumpWithException(unsigned long,_EXCEPTION_POINTERS *,MDRawAssertionInfo *)
FUNC 2cd0 ac c google_breakpad::ExceptionHandler::MinidumpWriteDumpCallback(void *,_MINIDUMP_CALLBACK_INPUT * const,_MINIDUMP_CALLBACK_OUTPUT *)
FUNC 2d80 14c 0 google_breakpad::ExceptionHandler::UpdateNextID()
FUNC 2ed0 37 0 google_breakpad::scoped_ptr<google_breakpad::CrashGenerationClient>::~scoped_ptr<google_breakpad::CrashGenerationClient>()
FUNC 2f10 4b 8 google_breakpad::scoped_ptr<google_breakpad::CrashGenerationClient>::reset(google_breakpad::CrashGenerationClient *)
FUNC 2f60 10 0 std::_Aux_cont::_Getcont()
FUNC 2f70 21 0 google_breakpad::scoped_ptr<google_breakpad::CrashGenerationClient>::release()
FUNC 2fa0 65 0 std::vector<google_breakpad::ExceptionHandler *,std::allocator<google_breakpad::ExceptionHandler *> >::vector<google_breakpad::ExceptionHandler *,std::allocator<google_breakpad::ExceptionHandler *> >()
FUNC 3010 23 0 std::vector<google_breakpad::ExceptionHandler *,std::allocator<google_breakpad::ExceptionHandler *> >::begin()
FUNC 3040 23 0 std::vector<google_breakpad::ExceptionHandler *,std::allocator<google_breakpad::ExceptionHandler *> >::end()
FUNC 3070 1a 0 std::vector<google_breakpad::ExceptionHandler *,std::allocator<google_breakpad::ExceptionHandler *> >::size()
FUNC 3090 43 8 std::vector<google_breakpad::ExceptionHandler *,std::allocator<google_breakpad::ExceptionHandler *> >::at(unsigned int)
FUNC 30e0 73 8 std::vector<google_breakpad::ExceptionHandler *,std::allocator<google_breakpad::ExceptionHandler *> >::push_back(google_breakpad::ExceptionHandler * const &)
FUNC 3160 13 0 std::_Vector_iterator<google_breakpad::ExceptionHandler *,std::allocator<google_breakpad::ExceptionHandler *> >::operator*()
FUNC 3180 2c 0 google_breakpad::CrashGenerationClient::`scalar deleting destructor'(unsigned int)
FUNC 31b0 13 0 std::_Vector_val<google_breakpad::ExceptionHandler *,std::allocator<google_breakpad::ExceptionHandler *> >::~_Vector_val<google_breakpad::ExceptionHandler *,std::allocator<google_breakpad::ExceptionHandler *> >()
FUNC 31d0 34 0 std::vector<google_breakpad::ExceptionHandler *,std::allocator<google_breakpad::ExceptionHandler *> >::capacity()
FUNC 3210 76 14 std::vector<google_breakpad::ExceptionHandler *,std::allocator<google_breakpad::ExceptionHandler *> >::insert(std::_Vector_const_iterator<google_breakpad::ExceptionHandler *,std::allocator<google_breakpad::ExceptionHandler *> >,google_breakpad::ExceptionHandler * const &)
FUNC 3290 80 8 std::vector<google_breakpad::ExceptionHandler *,std::allocator<google_breakpad::ExceptionHandler *> >::_Buy(unsigned int)
FUNC 3310 24 c std::vector<google_breakpad::ExceptionHandler *,std::allocator<google_breakpad::ExceptionHandler *> >::_Destroy(google_breakpad::ExceptionHandler * *,google_breakpad::ExceptionHandler * *)
FUNC 3340 31 10 std::vector<google_breakpad::ExceptionHandler *,std::allocator<google_breakpad::ExceptionHandler *> >::_Ufill(google_breakpad::ExceptionHandler * *,unsigned int,google_breakpad::ExceptionHandler * const &)
FUNC 3380 73 0 std::vector<google_breakpad::ExceptionHandler *,std::allocator<google_breakpad::ExceptionHandler *> >::_Xran()
FUNC 3400 38 8 std::_Vector_val<google_breakpad::ExceptionHandler *,std::allocator<google_breakpad::ExceptionHandler *> >::_Vector_val<google_breakpad::ExceptionHandler *,std::allocator<google_breakpad::ExceptionHandler *> >(std::allocator<google_breakpad::ExceptionHandler *>)
FUNC 3440 26 0 std::_Container_base_aux_alloc_real<std::allocator<google_breakpad::ExceptionHandler *> >::~_Container_base_aux_alloc_real<std::allocator<google_breakpad::ExceptionHandler *> >()
FUNC 3470 20 c std::_Vector_iterator<google_breakpad::ExceptionHandler *,std::allocator<google_breakpad::ExceptionHandler *> >::_Vector_iterator<google_breakpad::ExceptionHandler *,std::allocator<google_breakpad::ExceptionHandler *> >(google_breakpad::ExceptionHandler * *,std::_Container_base_aux const *)
FUNC 3490 39 c std::_Vector_iterator<google_breakpad::ExceptionHandler *,std::allocator<google_breakpad::ExceptionHandler *> >::operator+(int)
FUNC 34d0 47 0 std::_Vector_const_iterator<google_breakpad::ExceptionHandler *,std::allocator<google_breakpad::ExceptionHandler *> >::operator*()
FUNC 3520 16 0 std::vector<google_breakpad::ExceptionHandler *,std::allocator<google_breakpad::ExceptionHandler *> >::max_size()
FUNC 3540 343 14 std::vector<google_breakpad::ExceptionHandler *,std::allocator<google_breakpad::ExceptionHandler *> >::_Insert_n(std::_Vector_const_iterator<google_breakpad::ExceptionHandler *,std::allocator<google_breakpad::ExceptionHandler *> >,unsigned int,google_breakpad::ExceptionHandler * const &)
FUNC 3890 73 0 std::vector<google_breakpad::ExceptionHandler *,std::allocator<google_breakpad::ExceptionHandler *> >::_Xlen()
FUNC 3910 ae 8 std::_Container_base_aux_alloc_real<std::allocator<google_breakpad::ExceptionHandler *> >::_Container_base_aux_alloc_real<std::allocator<google_breakpad::ExceptionHandler *> >(std::allocator<google_breakpad::ExceptionHandler *>)
FUNC 39c0 10 8 std::allocator<std::_Aux_cont>::allocator<std::_Aux_cont><google_breakpad::ExceptionHandler *>(std::allocator<google_breakpad::ExceptionHandler *> const &)
FUNC 39d0 19 c std::allocator<std::_Aux_cont>::deallocate(std::_Aux_cont *,unsigned int)
FUNC 39f0 1c 8 std::_Vector_iterator<google_breakpad::ExceptionHandler *,std::allocator<google_breakpad::ExceptionHandler *> >::operator+=(int)
FUNC 3a10 53 c std::_Vector_const_iterator<google_breakpad::ExceptionHandler *,std::allocator<google_breakpad::ExceptionHandler *> >::_Vector_const_iterator<google_breakpad::ExceptionHandler *,std::allocator<google_breakpad::ExceptionHandler *> >(google_breakpad::ExceptionHandler * *,std::_Container_base_aux const *)
FUNC 3a70 48 8 std::_Vector_const_iterator<google_breakpad::ExceptionHandler *,std::allocator<google_breakpad::ExceptionHandler *> >::operator-(std::_Vector_const_iterator<google_breakpad::ExceptionHandler *,std::allocator<google_breakpad::ExceptionHandler *> > const &)
FUNC 3ac0 16 0 std::_Ranit<google_breakpad::ExceptionHandler *,int,google_breakpad::ExceptionHandler * const *,google_breakpad::ExceptionHandler * const &>::_Ranit<google_breakpad::ExceptionHandler *,int,google_breakpad::ExceptionHandler * const *,google_breakpad::ExceptionHandler * const &>()
FUNC 3ae0 16 0 std::_Iterator_with_base<std::random_access_iterator_tag,google_breakpad::ExceptionHandler *,int,google_breakpad::ExceptionHandler * const *,google_breakpad::ExceptionHandler * const &,std::_Iterator_base_aux>::_Iterator_with_base<std::random_access_iterator_tag,google_breakpad::ExceptionHandler *,int,google_breakpad::ExceptionHandler * const *,google_breakpad::ExceptionHandler * const &,std::_Iterator_base_aux>()
FUNC 3b00 2c 0 std::allocator<google_breakpad::ExceptionHandler *>::max_size()
FUNC 3b30 79 8 std::_Vector_const_iterator<google_breakpad::ExceptionHandler *,std::allocator<google_breakpad::ExceptionHandler *> >::operator+=(int)
FUNC 3bb0 49 8 std::max<unsigned __int64>(unsigned __int64 const &,unsigned __int64 const &)
FUNC 3c00 49 8 std::min<unsigned __int64>(unsigned __int64 const &,unsigned __int64 const &)
FUNC 3c50 34 c std::_Destroy_range<std::allocator<google_breakpad::ExceptionHandler *> >(google_breakpad::ExceptionHandler * *,google_breakpad::ExceptionHandler * *,std::allocator<google_breakpad::ExceptionHandler *> &)
FUNC 3c90 42 10 stdext::unchecked_uninitialized_fill_n<google_breakpad::ExceptionHandler * *,unsigned int,google_breakpad::ExceptionHandler *,std::allocator<google_breakpad::ExceptionHandler *> >(google_breakpad::ExceptionHandler * *,unsigned int,google_breakpad::ExceptionHandler * const &,std::allocator<google_breakpad::ExceptionHandler *> &)
FUNC 3ce0 28 10 std::vector<google_breakpad::ExceptionHandler *,std::allocator<google_breakpad::ExceptionHandler *> >::_Umove<google_breakpad::ExceptionHandler * *>(google_breakpad::ExceptionHandler * *,google_breakpad::ExceptionHandler * *,google_breakpad::ExceptionHandler * *)
FUNC 3d10 2b c std::fill<google_breakpad::ExceptionHandler * *,google_breakpad::ExceptionHandler *>(google_breakpad::ExceptionHandler * *,google_breakpad::ExceptionHandler * *,google_breakpad::ExceptionHandler * const &)
FUNC 3d40 64 c stdext::_Unchecked_move_backward<google_breakpad::ExceptionHandler * *,google_breakpad::ExceptionHandler * *>(google_breakpad::ExceptionHandler * *,google_breakpad::ExceptionHandler * *,google_breakpad::ExceptionHandler * *)
FUNC 3db0 19 4 std::_Checked_base<google_breakpad::ExceptionHandler * *>(google_breakpad::ExceptionHandler * * &)
FUNC 3dd0 5 10 std::_Destroy_range<std::allocator<google_breakpad::ExceptionHandler *> >(google_breakpad::ExceptionHandler * *,google_breakpad::ExceptionHandler * *,std::allocator<google_breakpad::ExceptionHandler *> &,std::_Scalar_ptr_iterator_tag)
FUNC 3de0 19 18 std::_Uninit_fill_n<google_breakpad::ExceptionHandler * *,unsigned int,google_breakpad::ExceptionHandler *,std::allocator<google_breakpad::ExceptionHandler *> >(google_breakpad::ExceptionHandler * *,unsigned int,google_breakpad::ExceptionHandler * const &,std::allocator<google_breakpad::ExceptionHandler *> &,std::_Scalar_ptr_iterator_tag,std::_Range_checked_iterator_tag)
FUNC 3e00 50 10 stdext::_Unchecked_uninitialized_move<google_breakpad::ExceptionHandler * *,google_breakpad::ExceptionHandler * *,std::allocator<google_breakpad::ExceptionHandler *> >(google_breakpad::ExceptionHandler * *,google_breakpad::ExceptionHandler * *,google_breakpad::ExceptionHandler * *,std::allocator<google_breakpad::ExceptionHandler *> &)
FUNC 3e50 24 c std::_Fill<google_breakpad::ExceptionHandler * *,google_breakpad::ExceptionHandler *>(google_breakpad::ExceptionHandler * *,google_breakpad::ExceptionHandler * *,google_breakpad::ExceptionHandler * const &)
FUNC 3e80 b 8 std::_Ptr_cat<google_breakpad::ExceptionHandler * *,google_breakpad::ExceptionHandler * *>(google_breakpad::ExceptionHandler * * &,google_breakpad::ExceptionHandler * * &)
FUNC 3e90 43 18 std::_Move_backward_opt<google_breakpad::ExceptionHandler * *,google_breakpad::ExceptionHandler * *,std::random_access_iterator_tag,std::_Undefined_move_tag>(google_breakpad::ExceptionHandler * *,google_breakpad::ExceptionHandler * *,google_breakpad::ExceptionHandler * *,std::random_access_iterator_tag,std::_Undefined_move_tag,std::_Range_checked_iterator_tag)
FUNC 3ee0 a 8 std::_Checked_base<google_breakpad::ExceptionHandler * *>(google_breakpad::ExceptionHandler * * &,std::_Unchanged_checked_iterator_base_type_tag)
FUNC 3ef0 3a c stdext::unchecked_fill_n<google_breakpad::ExceptionHandler * *,unsigned int,google_breakpad::ExceptionHandler *>(google_breakpad::ExceptionHandler * *,unsigned int,google_breakpad::ExceptionHandler * const &)
FUNC 3f30 1d 18 std::_Uninit_move<google_breakpad::ExceptionHandler * *,google_breakpad::ExceptionHandler * *,std::allocator<google_breakpad::ExceptionHandler *>,std::_Undefined_move_tag>(google_breakpad::ExceptionHandler * *,google_breakpad::ExceptionHandler * *,google_breakpad::ExceptionHandler * *,std::allocator<google_breakpad::ExceptionHandler *> &,std::_Undefined_move_tag,std::_Range_checked_iterator_tag)
FUNC 3f50 4c 18 std::_Copy_backward_opt<google_breakpad::ExceptionHandler * *,google_breakpad::ExceptionHandler * *,std::random_access_iterator_tag>(google_breakpad::ExceptionHandler * *,google_breakpad::ExceptionHandler * *,google_breakpad::ExceptionHandler * *,std::random_access_iterator_tag,std::_Scalar_ptr_iterator_tag,std::_Range_checked_iterator_tag)
FUNC 3fa0 b 8 std::_Iter_cat<google_breakpad::ExceptionHandler * *>(google_breakpad::ExceptionHandler * * const &)
FUNC 3fb0 3d 14 std::_Fill_n<google_breakpad::ExceptionHandler * *,unsigned int,google_breakpad::ExceptionHandler *>(google_breakpad::ExceptionHandler * *,unsigned int,google_breakpad::ExceptionHandler * const &,std::random_access_iterator_tag,std::_Range_checked_iterator_tag)
FUNC 3ff0 54 10 stdext::unchecked_uninitialized_copy<google_breakpad::ExceptionHandler * *,google_breakpad::ExceptionHandler * *,std::allocator<google_breakpad::ExceptionHandler *> >(google_breakpad::ExceptionHandler * *,google_breakpad::ExceptionHandler * *,google_breakpad::ExceptionHandler * *,std::allocator<google_breakpad::ExceptionHandler *> &)
FUNC 4050 2b 10 std::_Fill_n<google_breakpad::ExceptionHandler * *,unsigned int,google_breakpad::ExceptionHandler *>(google_breakpad::ExceptionHandler * *,unsigned int,google_breakpad::ExceptionHandler * const &,std::_Range_checked_iterator_tag)
FUNC 4080 4a 18 std::_Uninit_copy<google_breakpad::ExceptionHandler * *,google_breakpad::ExceptionHandler * *,std::allocator<google_breakpad::ExceptionHandler *> >(google_breakpad::ExceptionHandler * *,google_breakpad::ExceptionHandler * *,google_breakpad::ExceptionHandler * *,std::allocator<google_breakpad::ExceptionHandler *> &,std::_Scalar_ptr_iterator_tag,std::_Range_checked_iterator_tag)
FUNC 40d0 ae 4 google_breakpad::GUIDString::GUIDToWString(_GUID *)
PUBLIC 417e 0 operator delete(void *)
FUNC 4184 f 0 __security_check_cookie
FUNC 4193 4c 0 type_info::`vector deleting destructor'(unsigned int)
PUBLIC 41e0 0 operator new(unsigned int)
PUBLIC 41e6 0 std::exception::what()
PUBLIC 41ec 0 std::exception::exception(std::exception const &)
FUNC 41f2 4b 0 pre_cpp_init
FUNC 423d 176 0 __tmainCRTStartup
FUNC 43b3 e1 0 pre_c_init
FUNC 4494 a 0 wmainCRTStartup
FUNC 449e 106 0 __report_gsfailure
FUNC 45a4 5e 10 __ArrayUnwind(void *,unsigned int,int,void (*)(void *))
FUNC 4602 63 10 `eh vector destructor iterator'(void *,unsigned int,int,void (*)(void *))
FUNC 4665 42 4 __CxxUnhandledExceptionFilter(_EXCEPTION_POINTERS *)
FUNC 46a7 e 0 __CxxSetUnhandledExceptionFilter
PUBLIC 46b6 0 _amsg_exit
FUNC 46bc a5 4 _onexit
FUNC 4761 17 4 atexit
FUNC 4778 26 0 _RTC_Initialize
FUNC 479e 26 0 _RTC_Terminate
PUBLIC 47c4 0 _XcptFilter
FUNC 47d0 35 4 _ValidateImageBase
FUNC 4810 44 8 _FindPESection
FUNC 4860 bd 4 _IsNonwritableInCurrentImage
PUBLIC 491e 0 _initterm
PUBLIC 4924 0 _initterm_e
FUNC 492c 45 0 _SEH_prolog4
FUNC 4971 14 0 _SEH_epilog4
FUNC 4985 25 10 _except_handler4
FUNC 49aa 2b 0 _setdefaultprecision
FUNC 49d5 3 0 _matherr
FUNC 49d8 96 0 __security_init_cookie
PUBLIC 4a6e 0 _crt_debugger_hook
PUBLIC 4a74 0 terminate()
PUBLIC 4a7a 0 type_info::~type_info()
PUBLIC 4a80 0 _unlock
PUBLIC 4a86 0 __dllonexit
PUBLIC 4a8c 0 _lock
PUBLIC 4a92 0 _except_handler4_common
PUBLIC 4a98 0 _invoke_watson
PUBLIC 4a9e 0 _controlfp_s
PUBLIC 4aa4 0 __CxxFrameHandler3
PUBLIC 4aaa 0 memset
FUNC 4ab0 68 0 _aulldiv
PUBLIC 4b18 8 _CxxThrowException
FUNC 4d80 2d 0 `dynamic initializer for 'kCustomInfoEntries''
STACK WIN 4 4184 f 0 0 0 0 0 0 1 $T0 .raSearch = $eip $T0 ^ = $esp $T0 4 + =
STACK WIN 4 4193 4c c 0 4 0 0 0 1 $T0 $ebp = $eip $T0 4 + ^ = $ebp $T0 ^ = $esp $T0 8 + = $L $T0 .cbSavedRegs - = $P $T0 8 + .cbParams + =
STACK WIN 4 419d 3e 2 0 4 4 0 0 1 $T0 $ebp = $eip $T0 4 + ^ = $ebp $T0 ^ = $esp $T0 8 + = $L $T0 .cbSavedRegs - = $P $T0 8 + .cbParams + =
STACK WIN 4 41a2 22 0 0 4 8 0 0 1 $T0 $ebp = $eip $T0 4 + ^ = $ebp $T0 ^ = $esp $T0 8 + = $L $T0 .cbSavedRegs - = $P $T0 8 + .cbParams + =
STACK WIN 4 41f2 4b 0 0 0 0 0 0 1 $T0 .raSearch = $eip $T0 ^ = $esp $T0 4 + =
STACK WIN 4 423d 176 c 0 0 c 20 0 1 $T0 $ebp = $eip $T0 4 + ^ = $ebp $T0 ^ = $esp $T0 8 + = $L $T0 .cbSavedRegs - = $P $T0 8 + .cbParams + =
STACK WIN 4 4363 14 0 0 0 c 20 0 1 $T0 $ebp = $T2 $esp = $T1 .raSearchStart = $eip $T1 ^ = $ebp $T0 = $esp $T1 4 + = $L $T0 .cbSavedRegs - = $P $T1 4 + .cbParams + =
STACK WIN 4 43b3 e1 0 0 0 0 0 0 1 $T0 .raSearch = $eip $T0 ^ = $esp $T0 4 + =
STACK WIN 4 4494 a 0 0 0 0 0 0 1 $T0 .raSearch = $eip $T0 ^ = $esp $T0 4 + =
STACK WIN 4 449e 106 b 0 0 0 328 0 1 $T0 $ebp = $eip $T0 4 + ^ = $ebp $T0 ^ = $esp $T0 8 + = $L $T0 .cbSavedRegs - = $P $T0 8 + .cbParams + =
STACK WIN 4 45a4 5e c 0 10 c 24 0 1 $T0 $ebp = $eip $T0 4 + ^ = $ebp $T0 ^ = $esp $T0 8 + = $L $T0 .cbSavedRegs - = $P $T0 8 + .cbParams + =
STACK WIN 4 45c7 23 0 0 10 c 24 0 1 $T0 $ebp = $T2 $esp = $T1 .raSearchStart = $eip $T1 ^ = $ebp $T0 = $esp $T1 4 + = $L $T0 .cbSavedRegs - = $P $T1 4 + .cbParams + =
STACK WIN 4 4602 63 c 0 10 c 1c 0 1 $T0 $ebp = $eip $T0 4 + ^ = $ebp $T0 ^ = $esp $T0 8 + = $L $T0 .cbSavedRegs - = $P $T0 8 + .cbParams + =
STACK WIN 4 464d 17 0 0 10 c 1c 0 1 $T0 $ebp = $T2 $esp = $T1 .raSearchStart = $eip $T1 ^ = $ebp $T0 = $esp $T1 4 + = $L $T0 .cbSavedRegs - = $P $T1 4 + .cbParams + =
STACK WIN 4 4665 42 5 0 4 0 0 0 1 $T0 $ebp = $eip $T0 4 + ^ = $ebp $T0 ^ = $esp $T0 8 + = $L $T0 .cbSavedRegs - = $P $T0 8 + .cbParams + =
STACK WIN 4 46a7 e 0 0 0 0 0 0 1 $T0 .raSearch = $eip $T0 ^ = $esp $T0 4 + =
STACK WIN 4 46bc a5 c 0 4 c 24 0 1 $T0 $ebp = $eip $T0 4 + ^ = $ebp $T0 ^ = $esp $T0 8 + = $L $T0 .cbSavedRegs - = $P $T0 8 + .cbParams + =
STACK WIN 4 4758 8 0 0 4 c 24 0 1 $T0 $ebp = $T2 $esp = $T1 .raSearchStart = $eip $T1 ^ = $ebp $T0 = $esp $T1 4 + = $L $T0 .cbSavedRegs - = $P $T1 4 + .cbParams + =
STACK WIN 4 4761 17 5 0 4 0 0 0 1 $T0 $ebp = $eip $T0 4 + ^ = $ebp $T0 ^ = $esp $T0 8 + = $L $T0 .cbSavedRegs - = $P $T0 8 + .cbParams + =
STACK WIN 4 4778 26 e 0 0 0 0 0 1 $T0 .raSearch = $eip $T0 ^ = $esp $T0 4 + =
STACK WIN 4 477b 22 b 0 0 4 0 0 1 $T0 .raSearch = $eip $T0 ^ = $esp $T0 4 + =
STACK WIN 4 4786 16 0 0 0 8 0 0 1 $T0 .raSearch = $eip $T0 ^ = $esp $T0 4 + =
STACK WIN 4 479e 26 e 0 0 0 0 0 1 $T0 .raSearch = $eip $T0 ^ = $esp $T0 4 + =
STACK WIN 4 47a1 22 b 0 0 4 0 0 1 $T0 .raSearch = $eip $T0 ^ = $esp $T0 4 + =
STACK WIN 4 47ac 16 0 0 0 8 0 0 1 $T0 .raSearch = $eip $T0 ^ = $esp $T0 4 + =
STACK WIN 4 47d0 35 5 0 4 0 0 0 1 $T0 $ebp = $eip $T0 4 + ^ = $ebp $T0 ^ = $esp $T0 8 + = $L $T0 .cbSavedRegs - = $P $T0 8 + .cbParams + =
STACK WIN 4 4810 44 1a 0 8 0 0 0 1 $T0 $ebp = $eip $T0 4 + ^ = $ebp $T0 ^ = $esp $T0 8 + = $L $T0 .cbSavedRegs - = $P $T0 8 + .cbParams + =
STACK WIN 4 4822 30 8 0 8 4 0 0 1 $T0 $ebp = $eip $T0 4 + ^ = $ebp $T0 ^ = $esp $T0 8 + = $L $T0 .cbSavedRegs - = $P $T0 8 + .cbParams + = $ebx $T0 4 - ^ =
STACK WIN 4 4823 2e 7 0 8 8 0 0 1 $T0 $ebp = $eip $T0 4 + ^ = $ebp $T0 ^ = $esp $T0 8 + = $L $T0 .cbSavedRegs - = $P $T0 8 + .cbParams + = $ebx $T0 4 - ^ =
STACK WIN 4 482a 26 0 0 8 c 0 0 1 $T0 $ebp = $eip $T0 4 + ^ = $ebp $T0 ^ = $esp $T0 8 + = $L $T0 .cbSavedRegs - = $P $T0 8 + .cbParams + = $ebx $T0 4 - ^ =
STACK WIN 4 4860 bd 35 0 4 c 18 0 1 $T0 $ebp = $eip $T0 4 + ^ = $ebp $T0 ^ = $esp $T0 8 + = $L $T0 .cbSavedRegs - = $P $T0 8 + .cbParams + =
STACK WIN 4 487c a1 19 0 4 10 18 0 1 $T0 $ebp = $eip $T0 4 + ^ = $ebp $T0 ^ = $esp $T0 8 + = $L $T0 .cbSavedRegs - = $P $T0 8 + .cbParams + = $ebx $T0 28 - ^ =
STACK WIN 4 48eb 14 0 0 4 c 18 0 1 $T0 $ebp = $T2 $esp = $T1 .raSearchStart = $eip $T1 ^ = $ebp $T0 = $esp $T1 4 + = $L $T0 .cbSavedRegs - = $P $T1 4 + .cbParams + = $ebx $T0 28 - ^ =
STACK WIN 4 4985 25 5 0 10 0 0 0 1 $T0 $ebp = $eip $T0 4 + ^ = $ebp $T0 ^ = $esp $T0 8 + = $L $T0 .cbSavedRegs - = $P $T0 8 + .cbParams + =
STACK WIN 4 49aa 2b 3 0 0 0 0 0 1 $T0 .raSearch = $eip $T0 ^ = $esp $T0 4 + =
STACK WIN 4 49ad 27 0 0 0 4 0 0 1 $T0 .raSearch = $eip $T0 ^ = $esp $T0 4 + =
STACK WIN 4 49d5 3 0 0 4 0 0 0 1 $T0 .raSearch = $eip $T0 ^ = $esp $T0 4 + =
STACK WIN 4 49d8 96 17 0 0 0 10 0 1 $T0 $ebp = $eip $T0 4 + ^ = $ebp $T0 ^ = $esp $T0 8 + = $L $T0 .cbSavedRegs - = $P $T0 8 + .cbParams + =
STACK WIN 4 49ee 7e 1 0 0 4 10 0 1 $T0 $ebp = $eip $T0 4 + ^ = $ebp $T0 ^ = $esp $T0 8 + = $L $T0 .cbSavedRegs - = $P $T0 8 + .cbParams + = $ebx $T0 20 - ^ =
STACK WIN 4 49ef 7c 0 0 0 8 10 0 1 $T0 $ebp = $eip $T0 4 + ^ = $ebp $T0 ^ = $esp $T0 8 + = $L $T0 .cbSavedRegs - = $P $T0 8 + .cbParams + = $ebx $T0 20 - ^ =
STACK WIN 4 4a0b 5f 0 0 0 c 10 0 1 $T0 $ebp = $eip $T0 4 + ^ = $ebp $T0 ^ = $esp $T0 8 + = $L $T0 .cbSavedRegs - = $P $T0 8 + .cbParams + = $ebx $T0 20 - ^ =
STACK WIN 0 4363 14 0 0 0 0 0 0 0 0
STACK WIN 0 45c7 24 0 0 0 0 0 0 0 0
STACK WIN 0 464d 18 0 0 0 0 0 0 0 0
STACK WIN 0 4758 9 0 0 0 0 0 0 0 0
STACK WIN 0 48eb 14 0 0 0 0 0 0 0 0
